target datalayout = "e-m:e-p270:32:32-p271:32:32-p272:64:64-i64:64-i128:128-f80:128-n8:16:32:64-S128"
target triple = "x86_64-pc-linux-gnu"

%struct._generic_SUNLinearSolver = type { ptr, ptr, ptr }
%struct._SUNLinearSolverContent_SPGMR = type { i32, i32, i32, i32, i32, i32, double, i32, ptr, ptr, ptr, ptr, ptr, ptr, ptr, ptr, ptr, ptr, ptr, ptr, ptr, ptr, ptr }

; Function Attrs: nounwind uwtable
define i32 @SUNLinSolInitialize_SPGMR(ptr noundef %0) #0 {
  %2 = alloca ptr, align 8
  %3 = alloca i32, align 4
  %4 = alloca ptr, align 8
  %5 = alloca ptr, align 8
  store ptr %0, ptr %2, align 8, !tbaa !12
  call void @llvm.lifetime.start.p0(i64 4, ptr %3) #6
  call void @llvm.lifetime.start.p0(i64 8, ptr %4) #6
  call void @llvm.lifetime.start.p0(i64 8, ptr %5) #6
  %6 = load ptr, ptr %2, align 8, !tbaa !12
  %7 = getelementptr inbounds nuw %struct._generic_SUNLinearSolver, ptr %6, i32 0, i32 2
  %8 = load ptr, ptr %7, align 8, !tbaa !65
  store ptr %8, ptr %5, align 8, !tbaa !10
  %9 = load ptr, ptr %2, align 8, !tbaa !12
  %10 = getelementptr inbounds nuw %struct._generic_SUNLinearSolver, ptr %9, i32 0, i32 0
  %11 = load ptr, ptr %10, align 8, !tbaa !35
  store ptr %11, ptr %4, align 8, !tbaa !33
  %12 = load ptr, ptr %4, align 8, !tbaa !33
  %13 = getelementptr inbounds nuw %struct._SUNLinearSolverContent_SPGMR, ptr %12, i32 0, i32 3
  %14 = load i32, ptr %13, align 4, !tbaa !45
  %15 = icmp slt i32 %14, 0
  br i1 %15, label %16, label %19

16:                                               ; preds = %1
  %17 = load ptr, ptr %4, align 8, !tbaa !33
  %18 = getelementptr inbounds nuw %struct._SUNLinearSolverContent_SPGMR, ptr %17, i32 0, i32 3
  store i32 0, ptr %18, align 4, !tbaa !45
  br label %19

19:                                               ; preds = %16, %1
  %20 = load ptr, ptr %4, align 8, !tbaa !33
  %21 = getelementptr inbounds nuw %struct._SUNLinearSolverContent_SPGMR, ptr %20, i32 0, i32 1
  %22 = load i32, ptr %21, align 4, !tbaa !43
  %23 = icmp ne i32 %22, 1
  br i1 %23, label %24, label %37

24:                                               ; preds = %19
  %25 = load ptr, ptr %4, align 8, !tbaa !33
  %26 = getelementptr inbounds nuw %struct._SUNLinearSolverContent_SPGMR, ptr %25, i32 0, i32 1
  %27 = load i32, ptr %26, align 4, !tbaa !43
  %28 = icmp ne i32 %27, 2
  br i1 %28, label %29, label %37

29:                                               ; preds = %24
  %30 = load ptr, ptr %4, align 8, !tbaa !33
  %31 = getelementptr inbounds nuw %struct._SUNLinearSolverContent_SPGMR, ptr %30, i32 0, i32 1
  %32 = load i32, ptr %31, align 4, !tbaa !43
  %33 = icmp ne i32 %32, 3
  br i1 %33, label %34, label %37

34:                                               ; preds = %29
  %35 = load ptr, ptr %4, align 8, !tbaa !33
  %36 = getelementptr inbounds nuw %struct._SUNLinearSolverContent_SPGMR, ptr %35, i32 0, i32 1
  store i32 0, ptr %36, align 4, !tbaa !43
  br label %37

37:                                               ; preds = %34, %29, %24, %19
  %38 = load ptr, ptr %4, align 8, !tbaa !33
  %39 = getelementptr inbounds nuw %struct._SUNLinearSolverContent_SPGMR, ptr %38, i32 0, i32 15
  %40 = load ptr, ptr %39, align 8, !tbaa !58
  %41 = icmp eq ptr %40, null
  br i1 %41, label %42, label %53

42:                                               ; preds = %37
  %43 = load ptr, ptr %4, align 8, !tbaa !33
  %44 = getelementptr inbounds nuw %struct._SUNLinearSolverContent_SPGMR, ptr %43, i32 0, i32 0
  %45 = load i32, ptr %44, align 8, !tbaa !42
  %46 = add nsw i32 %45, 1
  %47 = load ptr, ptr %4, align 8, !tbaa !33
  %48 = getelementptr inbounds nuw %struct._SUNLinearSolverContent_SPGMR, ptr %47, i32 0, i32 20
  %49 = load ptr, ptr %48, align 8, !tbaa !50
  %50 = call ptr @N_VCloneVectorArray(i32 noundef %46, ptr noundef %49)
  %51 = load ptr, ptr %4, align 8, !tbaa !33
  %52 = getelementptr inbounds nuw %struct._SUNLinearSolverContent_SPGMR, ptr %51, i32 0, i32 15
  store ptr %50, ptr %52, align 8, !tbaa !58
  br label %53

53:                                               ; preds = %42, %37
  %54 = load ptr, ptr %4, align 8, !tbaa !33
  %55 = getelementptr inbounds nuw %struct._SUNLinearSolverContent_SPGMR, ptr %54, i32 0, i32 16
  %56 = load ptr, ptr %55, align 8, !tbaa !59
  %57 = icmp eq ptr %56, null
  br i1 %57, label %58, label %97

58:                                               ; preds = %53
  %59 = load ptr, ptr %4, align 8, !tbaa !33
  %60 = getelementptr inbounds nuw %struct._SUNLinearSolverContent_SPGMR, ptr %59, i32 0, i32 0
  %61 = load i32, ptr %60, align 8, !tbaa !42
  %62 = add nsw i32 %61, 1
  %63 = sext i32 %62 to i64
  %64 = mul i64 %63, 8
  %65 = call noalias ptr @malloc(i64 noundef %64) #7
  %66 = load ptr, ptr %4, align 8, !tbaa !33
  %67 = getelementptr inbounds nuw %struct._SUNLinearSolverContent_SPGMR, ptr %66, i32 0, i32 16
  store ptr %65, ptr %67, align 8, !tbaa !59
  store i32 0, ptr %3, align 4, !tbaa !8
  br label %68

68:                                               ; preds = %93, %58
  %69 = load i32, ptr %3, align 4, !tbaa !8
  %70 = load ptr, ptr %4, align 8, !tbaa !33
  %71 = getelementptr inbounds nuw %struct._SUNLinearSolverContent_SPGMR, ptr %70, i32 0, i32 0
  %72 = load i32, ptr %71, align 8, !tbaa !42
  %73 = icmp sle i32 %69, %72
  br i1 %73, label %74, label %96

74:                                               ; preds = %68
  %75 = load ptr, ptr %4, align 8, !tbaa !33
  %76 = getelementptr inbounds nuw %struct._SUNLinearSolverContent_SPGMR, ptr %75, i32 0, i32 16
  %77 = load ptr, ptr %76, align 8, !tbaa !59
  %78 = load i32, ptr %3, align 4, !tbaa !8
  %79 = sext i32 %78 to i64
  %80 = getelementptr inbounds ptr, ptr %77, i64 %79
  store ptr null, ptr %80, align 8, !tbaa !66
  %81 = load ptr, ptr %4, align 8, !tbaa !33
  %82 = getelementptr inbounds nuw %struct._SUNLinearSolverContent_SPGMR, ptr %81, i32 0, i32 0
  %83 = load i32, ptr %82, align 8, !tbaa !42
  %84 = sext i32 %83 to i64
  %85 = mul i64 %84, 8
  %86 = call noalias ptr @malloc(i64 noundef %85) #7
  %87 = load ptr, ptr %4, align 8, !tbaa !33
  %88 = getelementptr inbounds nuw %struct._SUNLinearSolverContent_SPGMR, ptr %87, i32 0, i32 16
  %89 = load ptr, ptr %88, align 8, !tbaa !59
  %90 = load i32, ptr %3, align 4, !tbaa !8
  %91 = sext i32 %90 to i64
  %92 = getelementptr inbounds ptr, ptr %89, i64 %91
  store ptr %86, ptr %92, align 8, !tbaa !66
  br label %93

93:                                               ; preds = %74
  %94 = load i32, ptr %3, align 4, !tbaa !8
  %95 = add nsw i32 %94, 1
  store i32 %95, ptr %3, align 4, !tbaa !8
  br label %68

96:                                               ; preds = %68
  br label %97

97:                                               ; preds = %96, %53
  %98 = load ptr, ptr %4, align 8, !tbaa !33
  %99 = getelementptr inbounds nuw %struct._SUNLinearSolverContent_SPGMR, ptr %98, i32 0, i32 17
  %100 = load ptr, ptr %99, align 8, !tbaa !60
  %101 = icmp eq ptr %100, null
  br i1 %101, label %102, label %112

102:                                              ; preds = %97
  %103 = load ptr, ptr %4, align 8, !tbaa !33
  %104 = getelementptr inbounds nuw %struct._SUNLinearSolverContent_SPGMR, ptr %103, i32 0, i32 0
  %105 = load i32, ptr %104, align 8, !tbaa !42
  %106 = mul nsw i32 2, %105
  %107 = sext i32 %106 to i64
  %108 = mul i64 %107, 8
  %109 = call noalias ptr @malloc(i64 noundef %108) #7
  %110 = load ptr, ptr %4, align 8, !tbaa !33
  %111 = getelementptr inbounds nuw %struct._SUNLinearSolverContent_SPGMR, ptr %110, i32 0, i32 17
  store ptr %109, ptr %111, align 8, !tbaa !60
  br label %112

112:                                              ; preds = %102, %97
  %113 = load ptr, ptr %4, align 8, !tbaa !33
  %114 = getelementptr inbounds nuw %struct._SUNLinearSolverContent_SPGMR, ptr %113, i32 0, i32 19
  %115 = load ptr, ptr %114, align 8, !tbaa !61
  %116 = icmp eq ptr %115, null
  br i1 %116, label %117, label %127

117:                                              ; preds = %112
  %118 = load ptr, ptr %4, align 8, !tbaa !33
  %119 = getelementptr inbounds nuw %struct._SUNLinearSolverContent_SPGMR, ptr %118, i32 0, i32 0
  %120 = load i32, ptr %119, align 8, !tbaa !42
  %121 = add nsw i32 %120, 1
  %122 = sext i32 %121 to i64
  %123 = mul i64 %122, 8
  %124 = call noalias ptr @malloc(i64 noundef %123) #7
  %125 = load ptr, ptr %4, align 8, !tbaa !33
  %126 = getelementptr inbounds nuw %struct._SUNLinearSolverContent_SPGMR, ptr %125, i32 0, i32 19
  store ptr %124, ptr %126, align 8, !tbaa !61
  br label %127

127:                                              ; preds = %117, %112
  %128 = load ptr, ptr %4, align 8, !tbaa !33
  %129 = getelementptr inbounds nuw %struct._SUNLinearSolverContent_SPGMR, ptr %128, i32 0, i32 21
  %130 = load ptr, ptr %129, align 8, !tbaa !62
  %131 = icmp eq ptr %130, null
  br i1 %131, label %132, label %142

132:                                              ; preds = %127
  %133 = load ptr, ptr %4, align 8, !tbaa !33
  %134 = getelementptr inbounds nuw %struct._SUNLinearSolverContent_SPGMR, ptr %133, i32 0, i32 0
  %135 = load i32, ptr %134, align 8, !tbaa !42
  %136 = add nsw i32 %135, 1
  %137 = sext i32 %136 to i64
  %138 = mul i64 %137, 8
  %139 = call noalias ptr @malloc(i64 noundef %138) #7
  %140 = load ptr, ptr %4, align 8, !tbaa !33
  %141 = getelementptr inbounds nuw %struct._SUNLinearSolverContent_SPGMR, ptr %140, i32 0, i32 21
  store ptr %139, ptr %141, align 8, !tbaa !62
  br label %142

142:                                              ; preds = %132, %127
  %143 = load ptr, ptr %4, align 8, !tbaa !33
  %144 = getelementptr inbounds nuw %struct._SUNLinearSolverContent_SPGMR, ptr %143, i32 0, i32 22
  %145 = load ptr, ptr %144, align 8, !tbaa !63
  %146 = icmp eq ptr %145, null
  br i1 %146, label %147, label %157

147:                                              ; preds = %142
  %148 = load ptr, ptr %4, align 8, !tbaa !33
  %149 = getelementptr inbounds nuw %struct._SUNLinearSolverContent_SPGMR, ptr %148, i32 0, i32 0
  %150 = load i32, ptr %149, align 8, !tbaa !42
  %151 = add nsw i32 %150, 1
  %152 = sext i32 %151 to i64
  %153 = mul i64 %152, 8
  %154 = call noalias ptr @malloc(i64 noundef %153) #7
  %155 = load ptr, ptr %4, align 8, !tbaa !33
  %156 = getelementptr inbounds nuw %struct._SUNLinearSolverContent_SPGMR, ptr %155, i32 0, i32 22
  store ptr %154, ptr %156, align 8, !tbaa !63
  br label %157

157:                                              ; preds = %147, %142
  call void @llvm.lifetime.end.p0(i64 8, ptr %5) #6
  call void @llvm.lifetime.end.p0(i64 8, ptr %4) #6
  call void @llvm.lifetime.end.p0(i64 4, ptr %3) #6
  ret i32 0
}