; Function Attrs: nounwind uwtable
define noundef i32 @SUNLinSolInitialize_SPGMR(ptr noundef readonly captures(none) %0) #0 {
  %2 = load ptr, ptr %0, align 8, !tbaa !26
  %3 = getelementptr inbounds nuw i8, ptr %2, i64 12
  %4 = load i32, ptr %3, align 4, !tbaa !48
  %5 = icmp slt i32 %4, 0
  br i1 %5, label %6, label %7

6:                                                ; preds = %1
  store i32 0, ptr %3, align 4, !tbaa !48
  br label %7

7:                                                ; preds = %6, %1
  %8 = getelementptr inbounds nuw i8, ptr %2, i64 4
  %9 = load i32, ptr %8, align 4, !tbaa !36
  %.off = add i32 %9, -1
  %switch = icmp ult i32 %.off, 3
  br i1 %switch, label %11, label %10

10:                                               ; preds = %7
  store i32 0, ptr %8, align 4, !tbaa !36
  br label %11

11:                                               ; preds = %7, %10
  %12 = getelementptr inbounds nuw i8, ptr %2, i64 96
  %13 = load ptr, ptr %12, align 8, !tbaa !49
  %14 = icmp eq ptr %13, null
  br i1 %14, label %15, label %21

15:                                               ; preds = %11
  %16 = load i32, ptr %2, align 8, !tbaa !35
  %17 = add nsw i32 %16, 1
  %18 = getelementptr inbounds nuw i8, ptr %2, i64 136
  %19 = load ptr, ptr %18, align 8, !tbaa !39
  %20 = tail call ptr @N_VCloneVectorArray(i32 noundef %17, ptr noundef %19) #12
  store ptr %20, ptr %12, align 8, !tbaa !49
  br label %21

21:                                               ; preds = %15, %11
  %22 = getelementptr inbounds nuw i8, ptr %2, i64 104
  %23 = load ptr, ptr %22, align 8, !tbaa !50
  %24 = icmp eq ptr %23, null
  br i1 %24, label %25, label %.loopexit

25:                                               ; preds = %21
  %26 = load i32, ptr %2, align 8, !tbaa !35
  %27 = add i32 %26, 1
  %28 = sext i32 %27 to i64
  %29 = shl nsw i64 %28, 3
  %30 = tail call noalias ptr @malloc(i64 noundef %29) #13
  store ptr %30, ptr %22, align 8, !tbaa !50
  %.not3738 = icmp slt i32 %26, 0
  br i1 %.not3738, label %.loopexit, label %.lr.ph

.lr.ph:                                           ; preds = %25
  %31 = zext nneg i32 %26 to i64
  %32 = shl nuw nsw i64 %31, 3
  %wide.trip.count = zext i32 %27 to i64
  br label %33

33:                                               ; preds = %.lr.ph, %33
  %indvars.iv = phi i64 [ 0, %.lr.ph ], [ %indvars.iv.next, %33 ]
  %34 = getelementptr inbounds nuw ptr, ptr %30, i64 %indvars.iv
  %35 = tail call noalias ptr @malloc(i64 noundef %32) #13
  store ptr %35, ptr %34, align 8, !tbaa !51
  %indvars.iv.next = add nuw nsw i64 %indvars.iv, 1
  %exitcond.not = icmp eq i64 %indvars.iv.next, %wide.trip.count
  br i1 %exitcond.not, label %.loopexit, label %33

.loopexit:                                        ; preds = %33, %25, %21
  %36 = getelementptr inbounds nuw i8, ptr %2, i64 112
  %37 = load ptr, ptr %36, align 8, !tbaa !52
  %38 = icmp eq ptr %37, null
  br i1 %38, label %39, label %45

39:                                               ; preds = %.loopexit
  %40 = load i32, ptr %2, align 8, !tbaa !35
  %41 = shl nsw i32 %40, 1
  %42 = sext i32 %41 to i64
  %43 = shl nsw i64 %42, 3
  %44 = tail call noalias ptr @malloc(i64 noundef %43) #13
  store ptr %44, ptr %36, align 8, !tbaa !52
  br label %45

45:                                               ; preds = %39, %.loopexit
  %46 = getelementptr inbounds nuw i8, ptr %2, i64 128
  %47 = load ptr, ptr %46, align 8, !tbaa !53
  %48 = icmp eq ptr %47, null
  br i1 %48, label %49, label %55

49:                                               ; preds = %45
  %50 = load i32, ptr %2, align 8, !tbaa !35
  %51 = add nsw i32 %50, 1
  %52 = sext i32 %51 to i64
  %53 = shl nsw i64 %52, 3
  %54 = tail call noalias ptr @malloc(i64 noundef %53) #13
  store ptr %54, ptr %46, align 8, !tbaa !53
  br label %55

55:                                               ; preds = %49, %45
  %56 = getelementptr inbounds nuw i8, ptr %2, i64 144
  %57 = load ptr, ptr %56, align 8, !tbaa !54
  %58 = icmp eq ptr %57, null
  br i1 %58, label %59, label %65

59:                                               ; preds = %55
  %60 = load i32, ptr %2, align 8, !tbaa !35
  %61 = add nsw i32 %60, 1
  %62 = sext i32 %61 to i64
  %63 = shl nsw i64 %62, 3
  %64 = tail call noalias ptr @malloc(i64 noundef %63) #13
  store ptr %64, ptr %56, align 8, !tbaa !54
  br label %65

65:                                               ; preds = %59, %55
  %66 = getelementptr inbounds nuw i8, ptr %2, i64 152
  %67 = load ptr, ptr %66, align 8, !tbaa !55
  %68 = icmp eq ptr %67, null
  br i1 %68, label %69, label %75

69:                                               ; preds = %65
  %70 = load i32, ptr %2, align 8, !tbaa !35
  %71 = add nsw i32 %70, 1
  %72 = sext i32 %71 to i64
  %73 = shl nsw i64 %72, 3
  %74 = tail call noalias ptr @malloc(i64 noundef %73) #13
  store ptr %74, ptr %66, align 8, !tbaa !55
  br label %75

75:                                               ; preds = %69, %65
  ret i32 0
}